; Function Attrs: nounwind sspstrong uwtable
define hidden void @rb_ractor_blocking_threads_inc(ptr noundef captures(none) %0, ptr noundef readnone captures(none) %1, i32 noundef %2) local_unnamed_addr #0 {
  %4 = alloca i32, align 4
  %5 = getelementptr inbounds nuw i8, ptr %0, i64 272
  %6 = load i32, ptr %5, align 8, !tbaa !75
  %.not.i = icmp eq i32 %6, 0
  br i1 %.not.i, label %ractor_check_blocking.exit, label %7

7:                                                ; preds = %3
  %8 = getelementptr inbounds nuw i8, ptr %0, i64 276
  %9 = load i32, ptr %8, align 4, !tbaa !76
  %10 = add i32 %9, 1
  %11 = icmp eq i32 %6, %10
  br i1 %11, label %12, label %ractor_check_blocking.exit

12:                                               ; preds = %7
  %13 = load ptr, ptr @ruby_current_vm_ptr, align 8, !tbaa !125
  call void @llvm.lifetime.start.p0(i64 4, ptr nonnull %4) #19
  %14 = load ptr, ptr @ruby_single_main_ractor, align 8, !tbaa !39
  %.not.i.i.i = icmp eq ptr %14, null
  br i1 %.not.i.i.i, label %15, label %rb_vm_lock_enter.exit.i

15:                                               ; preds = %12
  call void @rb_vm_lock_enter_body(ptr noundef nonnull %4) #19
  br label %rb_vm_lock_enter.exit.i

rb_vm_lock_enter.exit.i:                          ; preds = %15, %12
  %16 = getelementptr inbounds nuw i8, ptr %0, i64 424
  %17 = load i32, ptr %16, align 8, !tbaa !72
  %cond.i.i.i.i = icmp eq i32 %17, 3
  br i1 %cond.i.i.i.i, label %18, label %rb_vm_ractor_blocking_cnt_inc.exit.i

18:                                               ; preds = %rb_vm_lock_enter.exit.i
  call void (ptr, ...) @rb_bug(ptr noundef nonnull @.str.64) #33
  unreachable

rb_vm_ractor_blocking_cnt_inc.exit.i:             ; preds = %rb_vm_lock_enter.exit.i
  store i32 2, ptr %16, align 8, !tbaa !72
  %19 = getelementptr inbounds nuw i8, ptr %13, i64 28
  %20 = load i32, ptr %19, align 4, !tbaa !56
  %21 = add i32 %20, 1
  store i32 %21, ptr %19, align 4, !tbaa !56
  %22 = load ptr, ptr @ruby_single_main_ractor, align 8, !tbaa !39
  %.not.i.i6.i = icmp eq ptr %22, null
  br i1 %.not.i.i6.i, label %23, label %rb_vm_lock_leave.exit.i

23:                                               ; preds = %rb_vm_ractor_blocking_cnt_inc.exit.i
  call void @rb_vm_lock_leave_body(ptr noundef nonnull %4) #19
  br label %rb_vm_lock_leave.exit.i

rb_vm_lock_leave.exit.i:                          ; preds = %23, %rb_vm_ractor_blocking_cnt_inc.exit.i
  call void @llvm.lifetime.end.p0(i64 4, ptr nonnull %4) #19
  br label %ractor_check_blocking.exit

ractor_check_blocking.exit:                       ; preds = %3, %7, %rb_vm_lock_leave.exit.i
  %24 = getelementptr inbounds nuw i8, ptr %0, i64 276
  %25 = load i32, ptr %24, align 4, !tbaa !76
  %26 = add i32 %25, 1
  store i32 %26, ptr %24, align 4, !tbaa !76
  ret void
}